target datalayout = "e-m:e-p270:32:32-p271:32:32-p272:64:64-i64:64-i128:128-f80:128-n8:16:32:64-S128"
target triple = "x86_64-pc-linux-gnu"

; Function Attrs: mustprogress uwtable
define internal noundef i32 @_ZL5b_rotP9lua_Statei(ptr noundef %0, i32 noundef %1) #0 {
  %3 = alloca ptr, align 8
  %4 = alloca i32, align 4
  %5 = alloca i32, align 4
  store ptr %0, ptr %3, align 8, !tbaa !4
  store i32 %1, ptr %4, align 4, !tbaa !9
  call void @llvm.lifetime.start.p0(i64 4, ptr %5) #4
  %6 = load ptr, ptr %3, align 8, !tbaa !4
  %7 = call noundef i32 @_Z18luaL_checkunsignedP9lua_Statei(ptr noundef %6, i32 noundef 1)
  store i32 %7, ptr %5, align 4, !tbaa !9
  %8 = load i32, ptr %4, align 4, !tbaa !9
  %9 = and i32 %8, 31
  store i32 %9, ptr %4, align 4, !tbaa !9
  %10 = load i32, ptr %5, align 4, !tbaa !9
  %11 = and i32 %10, -1
  store i32 %11, ptr %5, align 4, !tbaa !9
  %12 = load i32, ptr %4, align 4, !tbaa !9
  %13 = icmp ne i32 %12, 0
  br i1 %13, label %14, label %23

14:                                               ; preds = %2
  %15 = load i32, ptr %5, align 4, !tbaa !9
  %16 = load i32, ptr %4, align 4, !tbaa !9
  %17 = shl i32 %15, %16
  %18 = load i32, ptr %5, align 4, !tbaa !9
  %19 = load i32, ptr %4, align 4, !tbaa !9
  %20 = sub nsw i32 32, %19
  %21 = lshr i32 %18, %20
  %22 = or i32 %17, %21
  store i32 %22, ptr %5, align 4, !tbaa !9
  br label %23

23:                                               ; preds = %14, %2
  %24 = load ptr, ptr %3, align 8, !tbaa !4
  %25 = load i32, ptr %5, align 4, !tbaa !9
  %26 = and i32 %25, -1
  call void @_Z16lua_pushunsignedP9lua_Statej(ptr noundef %24, i32 noundef %26)
  call void @llvm.lifetime.end.p0(i64 4, ptr %5) #4
  ret i32 1
}

; Function Attrs: mustprogress uwtable
define internal noundef i32 @_ZL6b_rrotP9lua_State(ptr noundef %0) #0 {
  %2 = alloca ptr, align 8
  store ptr %0, ptr %2, align 8, !tbaa !4
  %3 = load ptr, ptr %2, align 8, !tbaa !4
  %4 = load ptr, ptr %2, align 8, !tbaa !4
  %5 = call noundef i32 @_Z17luaL_checkintegerP9lua_Statei(ptr noundef %4, i32 noundef 2)
  %6 = sub nsw i32 0, %5
  %7 = call noundef i32 @_ZL5b_rotP9lua_Statei(ptr noundef %3, i32 noundef %6)
  ret i32 %7
}